; Function Attrs: mustprogress nounwind uwtable
define internal fastcc noundef zeroext i1 @_ZN5clang19RecursiveASTVisitorIN12_GLOBAL__N_122EmptyStatementsRemoverEE24TraversePackIndexingTypeEPNS_16PackIndexingTypeE(ptr noundef nonnull align 1 dereferenceable(1) %0, ptr noundef readonly captures(none) %1) unnamed_addr #0 align 2 {
  %3 = getelementptr inbounds nuw i8, ptr %1, i64 40
  %.sroa.0.0.copyload.i = load i64, ptr %3, align 8
  %4 = tail call fastcc noundef zeroext i1 @_ZN5clang19RecursiveASTVisitorIN12_GLOBAL__N_122EmptyStatementsRemoverEE12TraverseTypeENS_8QualTypeE(ptr noundef nonnull align 1 dereferenceable(1) %0, i64 %.sroa.0.0.copyload.i)
  br i1 %4, label %5, label %9

5:                                                ; preds = %2
  %6 = getelementptr inbounds nuw i8, ptr %1, i64 48
  %7 = load ptr, ptr %6, align 16
  %8 = tail call fastcc noundef zeroext i1 @_ZN5clang19RecursiveASTVisitorIN12_GLOBAL__N_122EmptyStatementsRemoverEE12TraverseStmtEPNS_4StmtEPN4llvm15SmallVectorImplINS6_14PointerIntPairIS5_Lj1EbNS6_21PointerLikeTypeTraitsIS5_EENS6_18PointerIntPairInfoIS5_Lj1ESA_EEEEEE(ptr noundef nonnull align 1 dereferenceable(1) %0, ptr noundef %7, ptr noundef null)
  br label %9

9:                                                ; preds = %5, %2
  %.0 = phi i1 [ false, %2 ], [ %8, %5 ]
  ret i1 %.0
}